; ModuleID = '4/891.cpp'
source_filename = "4/891.cpp"
target datalayout = "e-m:e-p270:32:32-p271:32:32-p272:64:64-i64:64-f80:128-n8:16:32:64-S128"
target triple = "x86_64-pc-linux-gnu"

%"class.std::ios_base::Init" = type { i8 }
%"class.std::basic_ostream" = type { i32 (...)**, %"class.std::basic_ios" }
%"class.std::basic_ios" = type { %"class.std::ios_base", %"class.std::basic_ostream"*, i8, i8, %"class.std::basic_streambuf"*, %"class.std::ctype"*, %"class.std::num_put"*, %"class.std::num_get"* }
%"class.std::ios_base" = type { i32 (...)**, i64, i64, i32, i32, i32, %"struct.std::ios_base::_Callback_list"*, %"struct.std::ios_base::_Words", [8 x %"struct.std::ios_base::_Words"], i32, %"struct.std::ios_base::_Words"*, %"class.std::locale" }
%"struct.std::ios_base::_Callback_list" = type { %"struct.std::ios_base::_Callback_list"*, void (i32, %"class.std::ios_base"*, i32)*, i32, i32 }
%"struct.std::ios_base::_Words" = type { i8*, i64 }
%"class.std::locale" = type { %"class.std::locale::_Impl"* }
%"class.std::locale::_Impl" = type { i32, %"class.std::locale::facet"**, i64, %"class.std::locale::facet"**, i8** }
%"class.std::locale::facet" = type <{ i32 (...)**, i32, [4 x i8] }>
%"class.std::basic_streambuf" = type { i32 (...)**, i8*, i8*, i8*, i8*, i8*, i8*, %"class.std::locale" }
%"class.std::ctype" = type <{ %"class.std::locale::facet.base", [4 x i8], %struct.__locale_struct*, i8, [7 x i8], i32*, i32*, i16*, i8, [256 x i8], [256 x i8], i8, [6 x i8] }>
%"class.std::locale::facet.base" = type <{ i32 (...)**, i32 }>
%struct.__locale_struct = type { [13 x %struct.__locale_data*], i16*, i32*, i32*, [13 x i8*] }
%struct.__locale_data = type opaque
%"class.std::num_put" = type { %"class.std::locale::facet.base", [4 x i8] }
%"class.std::num_get" = type { %"class.std::locale::facet.base", [4 x i8] }
%"class.std::basic_istream" = type { i32 (...)**, i64, %"class.std::basic_ios" }

@_ZStL8__ioinit = internal global %"class.std::ios_base::Init" zeroinitializer, align 1
@__dso_handle = external hidden global i8
@row = dso_local global i32 0, align 4
@col = dso_local global i32 0, align 4
@array = dso_local global [101 x [101 x i32]] zeroinitializer, align 16
@p = dso_local global [101 x i32]* getelementptr inbounds ([101 x [101 x i32]], [101 x [101 x i32]]* @array, i32 0, i32 0), align 8
@_ZSt4cout = external dso_local global %"class.std::basic_ostream", align 8
@_ZSt3cin = external dso_local global %"class.std::basic_istream", align 8
@llvm.global_ctors = appending global [1 x { i32, void ()*, i8* }] [{ i32, void ()*, i8* } { i32 65535, void ()* @_GLOBAL__sub_I_891.cpp, i8* null }]

; Function Attrs: noinline uwtable
define internal void @__cxx_global_var_init() #0 section ".text.startup" {
  call void @_ZNSt8ios_base4InitC1Ev(%"class.std::ios_base::Init"* @_ZStL8__ioinit)
  %1 = call i32 @__cxa_atexit(void (i8*)* bitcast (void (%"class.std::ios_base::Init"*)* @_ZNSt8ios_base4InitD1Ev to void (i8*)*), i8* getelementptr inbounds (%"class.std::ios_base::Init", %"class.std::ios_base::Init"* @_ZStL8__ioinit, i32 0, i32 0), i8* @__dso_handle) #3
  ret void
}

declare dso_local void @_ZNSt8ios_base4InitC1Ev(%"class.std::ios_base::Init"*) unnamed_addr #1

; Function Attrs: nounwind
declare dso_local void @_ZNSt8ios_base4InitD1Ev(%"class.std::ios_base::Init"*) unnamed_addr #2

; Function Attrs: nounwind
declare dso_local i32 @__cxa_atexit(void (i8*)*, i8*, i8*) #3

; Function Attrs: noinline uwtable
define dso_local i32 @_Z1fii(i32 %0, i32 %1) #0 {
  %3 = alloca i32, align 4
  %4 = alloca i32, align 4
  %5 = alloca i32, align 4
  %6 = alloca i32, align 4
  store i32 %0, i32* %4, align 4
  store i32 %1, i32* %5, align 4
  %7 = load i32, i32* %4, align 4
  %8 = load i32, i32* @row, align 4
  %9 = sub nsw i32 %8, 1
  %10 = icmp eq i32 %7, %9
  br i1 %10, label %11, label %27

11:                                               ; preds = %2
  %12 = load i32, i32* %5, align 4
  %13 = load i32, i32* @col, align 4
  %14 = sub nsw i32 %13, 1
  %15 = icmp eq i32 %12, %14
  br i1 %15, label %16, label %27

16:                                               ; preds = %11
  %17 = load [101 x i32]*, [101 x i32]** @p, align 8
  %18 = load i32, i32* %4, align 4
  %19 = sext i32 %18 to i64
  %20 = getelementptr inbounds [101 x i32], [101 x i32]* %17, i64 %19
  %21 = getelementptr inbounds [101 x i32], [101 x i32]* %20, i64 0, i64 0
  %22 = load i32, i32* %5, align 4
  %23 = sext i32 %22 to i64
  %24 = getelementptr inbounds i32, i32* %21, i64 %23
  %25 = load i32, i32* %24, align 4
  %26 = call dereferenceable(272) %"class.std::basic_ostream"* @_ZNSolsEi(%"class.std::basic_ostream"* @_ZSt4cout, i32 %25)
  store i32 0, i32* %3, align 4
  br label %85

27:                                               ; preds = %11, %2
  store i32 0, i32* %6, align 4
  br label %28

28:                                               ; preds = %61, %27
  %29 = load i32, i32* %4, align 4
  %30 = load i32, i32* %6, align 4
  %31 = add nsw i32 %29, %30
  %32 = load i32, i32* @row, align 4
  %33 = sub nsw i32 %32, 1
  %34 = icmp sle i32 %31, %33
  br i1 %34, label %35, label %40

35:                                               ; preds = %28
  %36 = load i32, i32* %5, align 4
  %37 = load i32, i32* %6, align 4
  %38 = sub nsw i32 %36, %37
  %39 = icmp sge i32 %38, 0
  br label %40

40:                                               ; preds = %35, %28
  %41 = phi i1 [ false, %28 ], [ %39, %35 ]
  br i1 %41, label %42, label %64

42:                                               ; preds = %40
  %43 = load [101 x i32]*, [101 x i32]** @p, align 8
  %44 = load i32, i32* %4, align 4
  %45 = sext i32 %44 to i64
  %46 = getelementptr inbounds [101 x i32], [101 x i32]* %43, i64 %45
  %47 = load i32, i32* %6, align 4
  %48 = sext i32 %47 to i64
  %49 = getelementptr inbounds [101 x i32], [101 x i32]* %46, i64 %48
  %50 = getelementptr inbounds [101 x i32], [101 x i32]* %49, i64 0, i64 0
  %51 = load i32, i32* %5, align 4
  %52 = sext i32 %51 to i64
  %53 = getelementptr inbounds i32, i32* %50, i64 %52
  %54 = load i32, i32* %6, align 4
  %55 = sext i32 %54 to i64
  %56 = sub i64 0, %55
  %57 = getelementptr inbounds i32, i32* %53, i64 %56
  %58 = load i32, i32* %57, align 4
  %59 = call dereferenceable(272) %"class.std::basic_ostream"* @_ZNSolsEi(%"class.std::basic_ostream"* @_ZSt4cout, i32 %58)
  %60 = call dereferenceable(272) %"class.std::basic_ostream"* @_ZNSolsEPFRSoS_E(%"class.std::basic_ostream"* %59, %"class.std::basic_ostream"* (%"class.std::basic_ostream"*)* @_ZSt4endlIcSt11char_traitsIcEERSt13basic_ostreamIT_T0_ES6_)
  br label %61

61:                                               ; preds = %42
  %62 = load i32, i32* %6, align 4
  %63 = add nsw i32 %62, 1
  store i32 %63, i32* %6, align 4
  br label %28

64:                                               ; preds = %40
  %65 = load i32, i32* %5, align 4
  %66 = load i32, i32* @col, align 4
  %67 = sub nsw i32 %66, 1
  %68 = icmp slt i32 %65, %67
  br i1 %68, label %69, label %73

69:                                               ; preds = %64
  %70 = load i32, i32* %5, align 4
  %71 = add nsw i32 %70, 1
  %72 = call i32 @_Z1fii(i32 0, i32 %71)
  store i32 %72, i32* %3, align 4
  br label %85

73:                                               ; preds = %64
  %74 = load i32, i32* %5, align 4
  %75 = load i32, i32* @col, align 4
  %76 = sub nsw i32 %75, 1
  %77 = icmp sge i32 %74, %76
  br i1 %77, label %78, label %84

78:                                               ; preds = %73
  %79 = load i32, i32* %4, align 4
  %80 = add nsw i32 %79, 1
  %81 = load i32, i32* @col, align 4
  %82 = sub nsw i32 %81, 1
  %83 = call i32 @_Z1fii(i32 %80, i32 %82)
  store i32 %83, i32* %3, align 4
  br label %85

84:                                               ; preds = %73
  call void @llvm.trap()
  unreachable

85:                                               ; preds = %78, %69, %16
  %86 = load i32, i32* %3, align 4
  ret i32 %86
}

declare dso_local dereferenceable(272) %"class.std::basic_ostream"* @_ZNSolsEi(%"class.std::basic_ostream"*, i32) #1

declare dso_local dereferenceable(272) %"class.std::basic_ostream"* @_ZNSolsEPFRSoS_E(%"class.std::basic_ostream"*, %"class.std::basic_ostream"* (%"class.std::basic_ostream"*)*) #1

declare dso_local dereferenceable(272) %"class.std::basic_ostream"* @_ZSt4endlIcSt11char_traitsIcEERSt13basic_ostreamIT_T0_ES6_(%"class.std::basic_ostream"* dereferenceable(272)) #1

; Function Attrs: cold noreturn nounwind
declare void @llvm.trap() #4

; Function Attrs: noinline norecurse uwtable
define dso_local i32 @main() #5 {
  %1 = alloca i32, align 4
  %2 = alloca i32, align 4
  %3 = alloca i32, align 4
  store i32 0, i32* %1, align 4
  %4 = call dereferenceable(280) %"class.std::basic_istream"* @_ZNSirsERi(%"class.std::basic_istream"* @_ZSt3cin, i32* dereferenceable(4) @row)
  %5 = call dereferenceable(280) %"class.std::basic_istream"* @_ZNSirsERi(%"class.std::basic_istream"* %4, i32* dereferenceable(4) @col)
  store i32 0, i32* %2, align 4
  br label %6

6:                                                ; preds = %27, %0
  %7 = load i32, i32* %2, align 4
  %8 = load i32, i32* @row, align 4
  %9 = icmp slt i32 %7, %8
  br i1 %9, label %10, label %30

10:                                               ; preds = %6
  store i32 0, i32* %3, align 4
  br label %11

11:                                               ; preds = %23, %10
  %12 = load i32, i32* %3, align 4
  %13 = load i32, i32* @col, align 4
  %14 = icmp slt i32 %12, %13
  br i1 %14, label %15, label %26

15:                                               ; preds = %11
  %16 = load i32, i32* %2, align 4
  %17 = sext i32 %16 to i64
  %18 = getelementptr inbounds [101 x [101 x i32]], [101 x [101 x i32]]* @array, i64 0, i64 %17
  %19 = load i32, i32* %3, align 4
  %20 = sext i32 %19 to i64
  %21 = getelementptr inbounds [101 x i32], [101 x i32]* %18, i64 0, i64 %20
  %22 = call dereferenceable(280) %"class.std::basic_istream"* @_ZNSirsERi(%"class.std::basic_istream"* @_ZSt3cin, i32* dereferenceable(4) %21)
  br label %23

23:                                               ; preds = %15
  %24 = load i32, i32* %3, align 4
  %25 = add nsw i32 %24, 1
  store i32 %25, i32* %3, align 4
  br label %11

26:                                               ; preds = %11
  br label %27

27:                                               ; preds = %26
  %28 = load i32, i32* %2, align 4
  %29 = add nsw i32 %28, 1
  store i32 %29, i32* %2, align 4
  br label %6

30:                                               ; preds = %6
  %31 = call i32 @_Z1fii(i32 0, i32 0)
  ret i32 0
}

declare dso_local dereferenceable(280) %"class.std::basic_istream"* @_ZNSirsERi(%"class.std::basic_istream"*, i32* dereferenceable(4)) #1

; Function Attrs: noinline uwtable
define internal void @_GLOBAL__sub_I_891.cpp() #0 section ".text.startup" {
  call void @__cxx_global_var_init()
  ret void
}


!llvm.module.flags = !{!0}
!llvm.ident = !{!1}

!0 = !{i32 1, !"wchar_size", i32 4}
!1 = !{!"clang version 10.0.0-4ubuntu1 "}
