; ModuleID = 'source-C-CXX/3/891.cpp'
source_filename = "source-C-CXX/3/891.cpp"
target datalayout = "e-m:e-p270:32:32-p271:32:32-p272:64:64-i64:64-f80:128-n8:16:32:64-S128"
target triple = "x86_64-pc-linux-gnu"

%"class.std::ios_base::Init" = type { i8 }
%"class.std::basic_ostream" = type { i32 (...)**, %"class.std::basic_ios" }
%"class.std::basic_ios" = type { %"class.std::ios_base", %"class.std::basic_ostream"*, i8, i8, %"class.std::basic_streambuf"*, %"class.std::ctype"*, %"class.std::num_put"*, %"class.std::num_get"* }
%"class.std::ios_base" = type { i32 (...)**, i64, i64, i32, i32, i32, %"struct.std::ios_base::_Callback_list"*, %"struct.std::ios_base::_Words", [8 x %"struct.std::ios_base::_Words"], i32, %"struct.std::ios_base::_Words"*, %"class.std::locale" }
%"struct.std::ios_base::_Callback_list" = type { %"struct.std::ios_base::_Callback_list"*, void (i32, %"class.std::ios_base"*, i32)*, i32, i32 }
%"struct.std::ios_base::_Words" = type { i8*, i64 }
%"class.std::locale" = type { %"class.std::locale::_Impl"* }
%"class.std::locale::_Impl" = type { i32, %"class.std::locale::facet"**, i64, %"class.std::locale::facet"**, i8** }
%"class.std::locale::facet" = type <{ i32 (...)**, i32, [4 x i8] }>
%"class.std::basic_streambuf" = type { i32 (...)**, i8*, i8*, i8*, i8*, i8*, i8*, %"class.std::locale" }
%"class.std::ctype" = type <{ %"class.std::locale::facet.base", [4 x i8], %struct.__locale_struct*, i8, [7 x i8], i32*, i32*, i16*, i8, [256 x i8], [256 x i8], i8, [6 x i8] }>
%"class.std::locale::facet.base" = type <{ i32 (...)**, i32 }>
%struct.__locale_struct = type { [13 x %struct.__locale_data*], i16*, i32*, i32*, [13 x i8*] }
%struct.__locale_data = type opaque
%"class.std::num_put" = type { %"class.std::locale::facet.base", [4 x i8] }
%"class.std::num_get" = type { %"class.std::locale::facet.base", [4 x i8] }
%"class.std::basic_istream" = type { i32 (...)**, i64, %"class.std::basic_ios" }

@_ZStL8__ioinit = internal global %"class.std::ios_base::Init" zeroinitializer, align 1
@__dso_handle = external hidden global i8
@row = dso_local global i32 0, align 4
@col = dso_local global i32 0, align 4
@array = dso_local global [101 x [101 x i32]] zeroinitializer, align 16
@p = dso_local local_unnamed_addr global [101 x i32]* getelementptr inbounds ([101 x [101 x i32]], [101 x [101 x i32]]* @array, i64 0, i64 0), align 8
@_ZSt4cout = external global %"class.std::basic_ostream", align 8
@_ZSt3cin = external global %"class.std::basic_istream", align 8
@llvm.global_ctors = appending global [1 x { i32, void ()*, i8* }] [{ i32, void ()*, i8* } { i32 65535, void ()* @_GLOBAL__sub_I_891.cpp, i8* null }]

declare void @_ZNSt8ios_base4InitC1Ev(%"class.std::ios_base::Init"* nonnull align 1 dereferenceable(1)) unnamed_addr #0

; Function Attrs: nounwind
declare void @_ZNSt8ios_base4InitD1Ev(%"class.std::ios_base::Init"* nonnull align 1 dereferenceable(1)) unnamed_addr #1

; Function Attrs: nofree nounwind
declare i32 @__cxa_atexit(void (i8*)*, i8*, i8*) local_unnamed_addr #2

; Function Attrs: mustprogress sspstrong uwtable
define dso_local i32 @_Z1fii(i32 %0, i32 %1) local_unnamed_addr #3 {
  %3 = load i32, i32* @row, align 4, !tbaa !5
  br label %4

4:                                                ; preds = %72, %2
  %5 = phi i32 [ %3, %2 ], [ %73, %72 ]
  %6 = phi i32 [ %0, %2 ], [ %79, %72 ]
  %7 = phi i32 [ %1, %2 ], [ %80, %72 ]
  %8 = add nsw i32 %5, -1
  %9 = icmp eq i32 %8, %6
  br i1 %9, label %10, label %21

10:                                               ; preds = %4
  %11 = load i32, i32* @col, align 4, !tbaa !5
  %12 = add nsw i32 %11, -1
  %13 = icmp eq i32 %12, %7
  br i1 %13, label %14, label %21

14:                                               ; preds = %10
  %15 = load [101 x i32]*, [101 x i32]** @p, align 8, !tbaa !9
  %16 = sext i32 %6 to i64
  %17 = sext i32 %7 to i64
  %18 = getelementptr inbounds [101 x i32], [101 x i32]* %15, i64 %16, i64 %17
  %19 = load i32, i32* %18, align 4, !tbaa !5
  %20 = tail call nonnull align 8 dereferenceable(8) %"class.std::basic_ostream"* @_ZNSolsEi(%"class.std::basic_ostream"* nonnull align 8 dereferenceable(8) @_ZSt4cout, i32 %19)
  ret i32 0

21:                                               ; preds = %10, %4
  %22 = sext i32 %6 to i64
  %23 = sext i32 %7 to i64
  %24 = icmp slt i32 %6, %5
  %25 = icmp sgt i32 %7, -1
  %26 = select i1 %24, i1 %25, i1 false
  br i1 %26, label %27, label %72

27:                                               ; preds = %21, %61
  %28 = phi i64 [ %65, %61 ], [ 0, %21 ]
  %29 = load [101 x i32]*, [101 x i32]** @p, align 8, !tbaa !9
  %30 = add nsw i64 %28, %22
  %31 = getelementptr inbounds [101 x i32], [101 x i32]* %29, i64 %30, i64 %23
  %32 = sub nsw i64 0, %28
  %33 = getelementptr inbounds i32, i32* %31, i64 %32
  %34 = load i32, i32* %33, align 4, !tbaa !5
  %35 = tail call nonnull align 8 dereferenceable(8) %"class.std::basic_ostream"* @_ZNSolsEi(%"class.std::basic_ostream"* nonnull align 8 dereferenceable(8) @_ZSt4cout, i32 %34)
  %36 = bitcast %"class.std::basic_ostream"* %35 to i8**
  %37 = load i8*, i8** %36, align 8, !tbaa !11
  %38 = getelementptr i8, i8* %37, i64 -24
  %39 = bitcast i8* %38 to i64*
  %40 = load i64, i64* %39, align 8
  %41 = bitcast %"class.std::basic_ostream"* %35 to i8*
  %42 = add nsw i64 %40, 240
  %43 = getelementptr inbounds i8, i8* %41, i64 %42
  %44 = bitcast i8* %43 to %"class.std::ctype"**
  %45 = load %"class.std::ctype"*, %"class.std::ctype"** %44, align 8, !tbaa !13
  %46 = icmp eq %"class.std::ctype"* %45, null
  br i1 %46, label %47, label %48

47:                                               ; preds = %27
  tail call void @_ZSt16__throw_bad_castv() #7
  unreachable

48:                                               ; preds = %27
  %49 = getelementptr inbounds %"class.std::ctype", %"class.std::ctype"* %45, i64 0, i32 8
  %50 = load i8, i8* %49, align 8, !tbaa !16
  %51 = icmp eq i8 %50, 0
  br i1 %51, label %55, label %52

52:                                               ; preds = %48
  %53 = getelementptr inbounds %"class.std::ctype", %"class.std::ctype"* %45, i64 0, i32 9, i64 10
  %54 = load i8, i8* %53, align 1, !tbaa !18
  br label %61

55:                                               ; preds = %48
  tail call void @_ZNKSt5ctypeIcE13_M_widen_initEv(%"class.std::ctype"* nonnull align 8 dereferenceable(570) %45)
  %56 = bitcast %"class.std::ctype"* %45 to i8 (%"class.std::ctype"*, i8)***
  %57 = load i8 (%"class.std::ctype"*, i8)**, i8 (%"class.std::ctype"*, i8)*** %56, align 8, !tbaa !11
  %58 = getelementptr inbounds i8 (%"class.std::ctype"*, i8)*, i8 (%"class.std::ctype"*, i8)** %57, i64 6
  %59 = load i8 (%"class.std::ctype"*, i8)*, i8 (%"class.std::ctype"*, i8)** %58, align 8
  %60 = tail call signext i8 %59(%"class.std::ctype"* nonnull align 8 dereferenceable(570) %45, i8 signext 10)
  br label %61

61:                                               ; preds = %52, %55
  %62 = phi i8 [ %54, %52 ], [ %60, %55 ]
  %63 = tail call nonnull align 8 dereferenceable(8) %"class.std::basic_ostream"* @_ZNSo3putEc(%"class.std::basic_ostream"* nonnull align 8 dereferenceable(8) %35, i8 signext %62)
  %64 = tail call nonnull align 8 dereferenceable(8) %"class.std::basic_ostream"* @_ZNSo5flushEv(%"class.std::basic_ostream"* nonnull align 8 dereferenceable(8) %63)
  %65 = add nuw nsw i64 %28, 1
  %66 = trunc i64 %65 to i32
  %67 = add nsw i32 %6, %66
  %68 = load i32, i32* @row, align 4, !tbaa !5
  %69 = icmp slt i32 %67, %68
  %70 = icmp slt i64 %28, %23
  %71 = select i1 %69, i1 %70, i1 false
  br i1 %71, label %27, label %72, !llvm.loop !19

72:                                               ; preds = %61, %21
  %73 = phi i32 [ %5, %21 ], [ %68, %61 ]
  %74 = load i32, i32* @col, align 4, !tbaa !5
  %75 = add nsw i32 %74, -1
  %76 = icmp sgt i32 %75, %7
  %77 = add nsw i32 %7, 1
  %78 = add nsw i32 %6, 1
  %79 = select i1 %76, i32 0, i32 %78
  %80 = select i1 %76, i32 %77, i32 %75
  br label %4
}

declare nonnull align 8 dereferenceable(8) %"class.std::basic_ostream"* @_ZNSolsEi(%"class.std::basic_ostream"* nonnull align 8 dereferenceable(8), i32) local_unnamed_addr #0

; Function Attrs: mustprogress norecurse sspstrong uwtable
define dso_local i32 @main() local_unnamed_addr #4 {
  %1 = tail call nonnull align 8 dereferenceable(16) %"class.std::basic_istream"* @_ZNSirsERi(%"class.std::basic_istream"* nonnull align 8 dereferenceable(16) @_ZSt3cin, i32* nonnull align 4 dereferenceable(4) @row)
  %2 = tail call nonnull align 8 dereferenceable(16) %"class.std::basic_istream"* @_ZNSirsERi(%"class.std::basic_istream"* nonnull align 8 dereferenceable(16) %1, i32* nonnull align 4 dereferenceable(4) @col)
  %3 = load i32, i32* @row, align 4, !tbaa !5
  %4 = icmp sgt i32 %3, 0
  %5 = load i32, i32* @col, align 4
  %6 = icmp sgt i32 %5, 0
  %7 = select i1 %4, i1 %6, i1 false
  br i1 %7, label %8, label %29

8:                                                ; preds = %0, %23
  %9 = phi i32 [ %24, %23 ], [ %3, %0 ]
  %10 = phi i32 [ %25, %23 ], [ %5, %0 ]
  %11 = phi i64 [ %26, %23 ], [ 0, %0 ]
  %12 = icmp sgt i32 %10, 0
  br i1 %12, label %13, label %23

13:                                               ; preds = %8, %13
  %14 = phi i64 [ %17, %13 ], [ 0, %8 ]
  %15 = getelementptr inbounds [101 x [101 x i32]], [101 x [101 x i32]]* @array, i64 0, i64 %11, i64 %14
  %16 = tail call nonnull align 8 dereferenceable(16) %"class.std::basic_istream"* @_ZNSirsERi(%"class.std::basic_istream"* nonnull align 8 dereferenceable(16) @_ZSt3cin, i32* nonnull align 4 dereferenceable(4) %15)
  %17 = add nuw nsw i64 %14, 1
  %18 = load i32, i32* @col, align 4, !tbaa !5
  %19 = sext i32 %18 to i64
  %20 = icmp slt i64 %17, %19
  br i1 %20, label %13, label %21, !llvm.loop !21

21:                                               ; preds = %13
  %22 = load i32, i32* @row, align 4, !tbaa !5
  br label %23

23:                                               ; preds = %21, %8
  %24 = phi i32 [ %22, %21 ], [ %9, %8 ]
  %25 = phi i32 [ %18, %21 ], [ %10, %8 ]
  %26 = add nuw nsw i64 %11, 1
  %27 = sext i32 %24 to i64
  %28 = icmp slt i64 %26, %27
  br i1 %28, label %8, label %29, !llvm.loop !22

29:                                               ; preds = %23, %0
  %30 = tail call i32 @_Z1fii(i32 0, i32 0)
  ret i32 0
}

declare nonnull align 8 dereferenceable(16) %"class.std::basic_istream"* @_ZNSirsERi(%"class.std::basic_istream"* nonnull align 8 dereferenceable(16), i32* nonnull align 4 dereferenceable(4)) local_unnamed_addr #0

declare nonnull align 8 dereferenceable(8) %"class.std::basic_ostream"* @_ZNSo3putEc(%"class.std::basic_ostream"* nonnull align 8 dereferenceable(8), i8 signext) local_unnamed_addr #0

declare nonnull align 8 dereferenceable(8) %"class.std::basic_ostream"* @_ZNSo5flushEv(%"class.std::basic_ostream"* nonnull align 8 dereferenceable(8)) local_unnamed_addr #0

; Function Attrs: noreturn
declare void @_ZSt16__throw_bad_castv() local_unnamed_addr #5

declare void @_ZNKSt5ctypeIcE13_M_widen_initEv(%"class.std::ctype"* nonnull align 8 dereferenceable(570)) local_unnamed_addr #0

; Function Attrs: sspstrong uwtable
define internal void @_GLOBAL__sub_I_891.cpp() #6 section ".text.startup" {
  tail call void @_ZNSt8ios_base4InitC1Ev(%"class.std::ios_base::Init"* nonnull align 1 dereferenceable(1) @_ZStL8__ioinit)
  %1 = tail call i32 @__cxa_atexit(void (i8*)* bitcast (void (%"class.std::ios_base::Init"*)* @_ZNSt8ios_base4InitD1Ev to void (i8*)*), i8* getelementptr inbounds (%"class.std::ios_base::Init", %"class.std::ios_base::Init"* @_ZStL8__ioinit, i64 0, i32 0), i8* nonnull @__dso_handle) #8
  ret void
}


!llvm.module.flags = !{!0, !1, !2, !3}
!llvm.ident = !{!4}

!0 = !{i32 1, !"wchar_size", i32 4}
!1 = !{i32 7, !"PIC Level", i32 2}
!2 = !{i32 7, !"PIE Level", i32 2}
!3 = !{i32 7, !"uwtable", i32 1}
!4 = !{!"clang version 13.0.0"}
!5 = !{!6, !6, i64 0}
!6 = !{!"int", !7, i64 0}
!7 = !{!"omnipotent char", !8, i64 0}
!8 = !{!"Simple C++ TBAA"}
!9 = !{!10, !10, i64 0}
!10 = !{!"any pointer", !7, i64 0}
!11 = !{!12, !12, i64 0}
!12 = !{!"vtable pointer", !8, i64 0}
!13 = !{!14, !10, i64 240}
!14 = !{!"_ZTSSt9basic_iosIcSt11char_traitsIcEE", !10, i64 216, !7, i64 224, !15, i64 225, !10, i64 232, !10, i64 240, !10, i64 248, !10, i64 256}
!15 = !{!"bool", !7, i64 0}
!16 = !{!17, !7, i64 56}
!17 = !{!"_ZTSSt5ctypeIcE", !10, i64 16, !15, i64 24, !10, i64 32, !10, i64 40, !10, i64 48, !7, i64 56, !7, i64 57, !7, i64 313, !7, i64 569}
!18 = !{!7, !7, i64 0}
!19 = distinct !{!19, !20}
!20 = !{!"llvm.loop.mustprogress"}
!21 = distinct !{!21, !20}
!22 = distinct !{!22, !20, !23}
!23 = !{!"llvm.loop.unswitch.partial.disable"}
